; Function Attrs: nounwind uwtable
define hidden range(i32 0, 23) i32 @avifDecoderSetIOFile(ptr noundef captures(none) %0, ptr noundef %1) local_unnamed_addr #0 {
  %3 = tail call ptr @avifIOCreateFileReader(ptr noundef %1) #13
  %.not = icmp eq ptr %3, null
  br i1 %.not, label %7, label %4

4:                                                ; preds = %2
  %5 = getelementptr inbounds nuw i8, ptr %0, i64 416
  %6 = load ptr, ptr %5, align 8
  tail call void @avifIODestroy(ptr noundef %6) #13
  store ptr %3, ptr %5, align 8
  br label %7

7:                                                ; preds = %2, %4
  %.0 = phi i32 [ 0, %4 ], [ 22, %2 ]
  ret i32 %.0
}